target datalayout = "e-m:e-p270:32:32-p271:32:32-p272:64:64-i64:64-i128:128-f80:128-n8:16:32:64-S128"
target triple = "x86_64-pc-linux-gnu"

%struct.mz_zip_archive = type { i64, i64, i32, i32, i32, i32, i64, ptr, ptr, ptr, ptr, ptr, ptr, ptr, ptr, ptr }
%struct.mz_zip_internal_state_tag = type { %struct.mz_zip_array, %struct.mz_zip_array, %struct.mz_zip_array, i32, i32, i32, ptr, i64, ptr, i64, i64 }
%struct.mz_zip_array = type { ptr, i64, i64, i32 }
%struct.mz_zip_archive_file_stat = type { i32, i64, i16, i16, i16, i16, i32, i64, i64, i16, i32, i64, i32, i32, i32, i32, [512 x i8], [512 x i8], i64 }

; Function Attrs: alwaysinline nounwind uwtable
define internal ptr @mz_zip_get_cdh(ptr noundef %0, i32 noundef %1) #7 {
  %3 = alloca ptr, align 8
  %4 = alloca ptr, align 8
  %5 = alloca i32, align 4
  store ptr %0, ptr %4, align 8
  store i32 %1, ptr %5, align 4
  %6 = load ptr, ptr %4, align 8
  %7 = icmp ne ptr %6, null
  br i1 %7, label %8, label %19

8:                                                ; preds = %2
  %9 = load ptr, ptr %4, align 8
  %10 = getelementptr inbounds nuw %struct.mz_zip_archive, ptr %9, i32 0, i32 15
  %11 = load ptr, ptr %10, align 8
  %12 = icmp ne ptr %11, null
  br i1 %12, label %13, label %19

13:                                               ; preds = %8
  %14 = load i32, ptr %5, align 4
  %15 = load ptr, ptr %4, align 8
  %16 = getelementptr inbounds nuw %struct.mz_zip_archive, ptr %15, i32 0, i32 2
  %17 = load i32, ptr %16, align 8
  %18 = icmp uge i32 %14, %17
  br i1 %18, label %19, label %20

19:                                               ; preds = %13, %8, %2
  store ptr null, ptr %3, align 8
  br label %39

20:                                               ; preds = %13
  %21 = load ptr, ptr %4, align 8
  %22 = getelementptr inbounds nuw %struct.mz_zip_archive, ptr %21, i32 0, i32 15
  %23 = load ptr, ptr %22, align 8
  %24 = getelementptr inbounds nuw %struct.mz_zip_internal_state_tag, ptr %23, i32 0, i32 0
  %25 = getelementptr inbounds nuw %struct.mz_zip_array, ptr %24, i32 0, i32 0
  %26 = load ptr, ptr %25, align 8
  %27 = load ptr, ptr %4, align 8
  %28 = getelementptr inbounds nuw %struct.mz_zip_archive, ptr %27, i32 0, i32 15
  %29 = load ptr, ptr %28, align 8
  %30 = getelementptr inbounds nuw %struct.mz_zip_internal_state_tag, ptr %29, i32 0, i32 1
  %31 = getelementptr inbounds nuw %struct.mz_zip_array, ptr %30, i32 0, i32 0
  %32 = load ptr, ptr %31, align 8
  %33 = load i32, ptr %5, align 4
  %34 = zext i32 %33 to i64
  %35 = getelementptr inbounds nuw i32, ptr %32, i64 %34
  %36 = load i32, ptr %35, align 4
  %37 = zext i32 %36 to i64
  %38 = getelementptr inbounds nuw i8, ptr %26, i64 %37
  store ptr %38, ptr %3, align 8
  br label %39

39:                                               ; preds = %20, %19
  %40 = load ptr, ptr %3, align 8
  ret ptr %40
}

; Function Attrs: nounwind uwtable
define i32 @mz_zip_reader_file_stat(ptr noundef %0, i32 noundef %1, ptr noundef %2) #0 {
  %4 = alloca ptr, align 8
  %5 = alloca i32, align 4
  %6 = alloca ptr, align 8
  store ptr %0, ptr %4, align 8
  store i32 %1, ptr %5, align 4
  store ptr %2, ptr %6, align 8
  %7 = load ptr, ptr %4, align 8
  %8 = load i32, ptr %5, align 4
  %9 = load ptr, ptr %4, align 8
  %10 = load i32, ptr %5, align 4
  %11 = call ptr @mz_zip_get_cdh(ptr noundef %9, i32 noundef %10)
  %12 = load ptr, ptr %6, align 8
  %13 = call i32 @mz_zip_file_stat_internal(ptr noundef %7, i32 noundef %8, ptr noundef %11, ptr noundef %12, ptr noundef null)
  ret i32 %13
}

; Function Attrs: alwaysinline nounwind uwtable
define internal i32 @mz_zip_set_error(ptr noundef %0, i32 noundef %1) #7 {
  %3 = alloca ptr, align 8
  %4 = alloca i32, align 4
  store ptr %0, ptr %3, align 8
  store i32 %1, ptr %4, align 4
  %5 = load ptr, ptr %3, align 8
  %6 = icmp ne ptr %5, null
  br i1 %6, label %7, label %11

7:                                                ; preds = %2
  %8 = load i32, ptr %4, align 4
  %9 = load ptr, ptr %3, align 8
  %10 = getelementptr inbounds nuw %struct.mz_zip_archive, ptr %9, i32 0, i32 5
  store i32 %8, ptr %10, align 4
  br label %11

11:                                               ; preds = %7, %2
  ret i32 0
}

; Function Attrs: nounwind uwtable
define i32 @mz_zip_validate_archive(ptr noundef %0, i32 noundef %1) #0 {
  %3 = alloca i32, align 4
  %4 = alloca ptr, align 8
  %5 = alloca i32, align 4
  %6 = alloca ptr, align 8
  %7 = alloca i32, align 4
  %8 = alloca i32, align 4
  %9 = alloca i32, align 4
  %10 = alloca %struct.mz_zip_archive_file_stat, align 8
  store ptr %0, ptr %4, align 8
  store i32 %1, ptr %5, align 4
  call void @llvm.lifetime.start.p0(i64 8, ptr %6) #13
  call void @llvm.lifetime.start.p0(i64 4, ptr %7) #13
  %11 = load ptr, ptr %4, align 8
  %12 = icmp ne ptr %11, null
  br i1 %12, label %13, label %33

13:                                               ; preds = %2
  %14 = load ptr, ptr %4, align 8
  %15 = getelementptr inbounds nuw %struct.mz_zip_archive, ptr %14, i32 0, i32 15
  %16 = load ptr, ptr %15, align 8
  %17 = icmp ne ptr %16, null
  br i1 %17, label %18, label %33

18:                                               ; preds = %13
  %19 = load ptr, ptr %4, align 8
  %20 = getelementptr inbounds nuw %struct.mz_zip_archive, ptr %19, i32 0, i32 7
  %21 = load ptr, ptr %20, align 8
  %22 = icmp ne ptr %21, null
  br i1 %22, label %23, label %33

23:                                               ; preds = %18
  %24 = load ptr, ptr %4, align 8
  %25 = getelementptr inbounds nuw %struct.mz_zip_archive, ptr %24, i32 0, i32 8
  %26 = load ptr, ptr %25, align 8
  %27 = icmp ne ptr %26, null
  br i1 %27, label %28, label %33

28:                                               ; preds = %23
  %29 = load ptr, ptr %4, align 8
  %30 = getelementptr inbounds nuw %struct.mz_zip_archive, ptr %29, i32 0, i32 11
  %31 = load ptr, ptr %30, align 8
  %32 = icmp ne ptr %31, null
  br i1 %32, label %36, label %33

33:                                               ; preds = %28, %23, %18, %13, %2
  %34 = load ptr, ptr %4, align 8
  %35 = call i32 @mz_zip_set_error(ptr noundef %34, i32 noundef 24)
  store i32 %35, ptr %3, align 4
  store i32 1, ptr %8, align 4
  br label %118

36:                                               ; preds = %28
  %37 = load ptr, ptr %4, align 8
  %38 = getelementptr inbounds nuw %struct.mz_zip_archive, ptr %37, i32 0, i32 15
  %39 = load ptr, ptr %38, align 8
  store ptr %39, ptr %6, align 8
  %40 = load ptr, ptr %6, align 8
  %41 = getelementptr inbounds nuw %struct.mz_zip_internal_state_tag, ptr %40, i32 0, i32 4
  %42 = load i32, ptr %41, align 4
  %43 = icmp ne i32 %42, 0
  br i1 %43, label %61, label %44

44:                                               ; preds = %36
  %45 = load ptr, ptr %4, align 8
  %46 = getelementptr inbounds nuw %struct.mz_zip_archive, ptr %45, i32 0, i32 2
  %47 = load i32, ptr %46, align 8
  %48 = icmp ugt i32 %47, 65535
  br i1 %48, label %49, label %52

49:                                               ; preds = %44
  %50 = load ptr, ptr %4, align 8
  %51 = call i32 @mz_zip_set_error(ptr noundef %50, i32 noundef 29)
  store i32 %51, ptr %3, align 4
  store i32 1, ptr %8, align 4
  br label %118

52:                                               ; preds = %44
  %53 = load ptr, ptr %4, align 8
  %54 = getelementptr inbounds nuw %struct.mz_zip_archive, ptr %53, i32 0, i32 0
  %55 = load i64, ptr %54, align 8
  %56 = icmp ugt i64 %55, 4294967295
  br i1 %56, label %57, label %60

57:                                               ; preds = %52
  %58 = load ptr, ptr %4, align 8
  %59 = call i32 @mz_zip_set_error(ptr noundef %58, i32 noundef 29)
  store i32 %59, ptr %3, align 4
  store i32 1, ptr %8, align 4
  br label %118

60:                                               ; preds = %52
  br label %71

61:                                               ; preds = %36
  %62 = load ptr, ptr %6, align 8
  %63 = getelementptr inbounds nuw %struct.mz_zip_internal_state_tag, ptr %62, i32 0, i32 0
  %64 = getelementptr inbounds nuw %struct.mz_zip_array, ptr %63, i32 0, i32 1
  %65 = load i64, ptr %64, align 8
  %66 = icmp uge i64 %65, 4294967295
  br i1 %66, label %67, label %70

67:                                               ; preds = %61
  %68 = load ptr, ptr %4, align 8
  %69 = call i32 @mz_zip_set_error(ptr noundef %68, i32 noundef 29)
  store i32 %69, ptr %3, align 4
  store i32 1, ptr %8, align 4
  br label %118

70:                                               ; preds = %61
  br label %71

71:                                               ; preds = %70, %60
  store i32 0, ptr %7, align 4
  br label %72

72:                                               ; preds = %114, %71
  %73 = load i32, ptr %7, align 4
  %74 = load ptr, ptr %4, align 8
  %75 = getelementptr inbounds nuw %struct.mz_zip_archive, ptr %74, i32 0, i32 2
  %76 = load i32, ptr %75, align 8
  %77 = icmp ult i32 %73, %76
  br i1 %77, label %78, label %117

78:                                               ; preds = %72
  %79 = load i32, ptr %5, align 4
  %80 = and i32 4096, %79
  %81 = icmp ne i32 %80, 0
  br i1 %81, label %82, label %106

82:                                               ; preds = %78
  call void @llvm.lifetime.start.p0(i64 4, ptr %9) #13
  call void @llvm.lifetime.start.p0(i64 1112, ptr %10) #13
  %83 = load ptr, ptr %4, align 8
  %84 = load i32, ptr %7, align 4
  %85 = call i32 @mz_zip_reader_file_stat(ptr noundef %83, i32 noundef %84, ptr noundef %10)
  %86 = icmp ne i32 %85, 0
  br i1 %86, label %88, label %87

87:                                               ; preds = %82
  store i32 0, ptr %3, align 4
  store i32 1, ptr %8, align 4
  br label %103

88:                                               ; preds = %82
  %89 = load ptr, ptr %4, align 8
  %90 = getelementptr inbounds nuw %struct.mz_zip_archive_file_stat, ptr %10, i32 0, i32 16
  %91 = getelementptr inbounds [512 x i8], ptr %90, i64 0, i64 0
  %92 = call i32 @mz_zip_reader_locate_file_v2(ptr noundef %89, ptr noundef %91, ptr noundef null, i32 noundef 0, ptr noundef %9)
  %93 = icmp ne i32 %92, 0
  br i1 %93, label %95, label %94

94:                                               ; preds = %88
  store i32 0, ptr %3, align 4
  store i32 1, ptr %8, align 4
  br label %103

95:                                               ; preds = %88
  %96 = load i32, ptr %9, align 4
  %97 = load i32, ptr %7, align 4
  %98 = icmp ne i32 %96, %97
  br i1 %98, label %99, label %102

99:                                               ; preds = %95
  %100 = load ptr, ptr %4, align 8
  %101 = call i32 @mz_zip_set_error(ptr noundef %100, i32 noundef 30)
  store i32 %101, ptr %3, align 4
  store i32 1, ptr %8, align 4
  br label %103

102:                                              ; preds = %95
  store i32 0, ptr %8, align 4
  br label %103

103:                                              ; preds = %102, %99, %94, %87
  call void @llvm.lifetime.end.p0(i64 1112, ptr %10) #13
  call void @llvm.lifetime.end.p0(i64 4, ptr %9) #13
  %104 = load i32, ptr %8, align 4
  switch i32 %104, label %118 [
    i32 0, label %105
  ]

105:                                              ; preds = %103
  br label %106

106:                                              ; preds = %105, %78
  %107 = load ptr, ptr %4, align 8
  %108 = load i32, ptr %7, align 4
  %109 = load i32, ptr %5, align 4
  %110 = call i32 @mz_zip_validate_file(ptr noundef %107, i32 noundef %108, i32 noundef %109)
  %111 = icmp ne i32 %110, 0
  br i1 %111, label %113, label %112

112:                                              ; preds = %106
  store i32 0, ptr %3, align 4
  store i32 1, ptr %8, align 4
  br label %118

113:                                              ; preds = %106
  br label %114

114:                                              ; preds = %113
  %115 = load i32, ptr %7, align 4
  %116 = add i32 %115, 1
  store i32 %116, ptr %7, align 4
  br label %72

117:                                              ; preds = %72
  store i32 1, ptr %3, align 4
  store i32 1, ptr %8, align 4
  br label %118

118:                                              ; preds = %117, %112, %103, %67, %57, %49, %33
  call void @llvm.lifetime.end.p0(i64 4, ptr %7) #13
  call void @llvm.lifetime.end.p0(i64 8, ptr %6) #13
  %119 = load i32, ptr %3, align 4
  ret i32 %119
}