; Function Attrs: nounwind uwtable
define range(i32 0, 2) i32 @mz_zip_validate_archive(ptr noundef captures(address_is_null) %0, i32 noundef %1) local_unnamed_addr #8 {
  %3 = alloca i32, align 4
  %4 = alloca %struct.mz_zip_archive_file_stat, align 8
  %.not = icmp eq ptr %0, null
  br i1 %.not, label %mz_zip_set_error.exit48, label %5

5:                                                ; preds = %2
  %6 = getelementptr inbounds nuw i8, ptr %0, i64 104
  %7 = load ptr, ptr %6, align 8
  %.not31 = icmp eq ptr %7, null
  br i1 %.not31, label %17, label %8

8:                                                ; preds = %5
  %9 = getelementptr inbounds nuw i8, ptr %0, i64 40
  %10 = load ptr, ptr %9, align 8
  %.not32 = icmp eq ptr %10, null
  br i1 %.not32, label %17, label %11

11:                                               ; preds = %8
  %12 = getelementptr inbounds nuw i8, ptr %0, i64 48
  %13 = load ptr, ptr %12, align 8
  %.not33 = icmp eq ptr %13, null
  br i1 %.not33, label %17, label %14

14:                                               ; preds = %11
  %15 = getelementptr inbounds nuw i8, ptr %0, i64 72
  %16 = load ptr, ptr %15, align 8
  %.not34 = icmp eq ptr %16, null
  br i1 %.not34, label %17, label %19

17:                                               ; preds = %14, %11, %8, %5
  %18 = getelementptr inbounds nuw i8, ptr %0, i64 28
  store i32 24, ptr %18, align 4
  br label %mz_zip_set_error.exit48

19:                                               ; preds = %14
  %20 = getelementptr inbounds nuw i8, ptr %7, i64 100
  %21 = load i32, ptr %20, align 4
  %.not35 = icmp eq i32 %21, 0
  br i1 %.not35, label %22, label %31

22:                                               ; preds = %19
  %23 = getelementptr inbounds nuw i8, ptr %0, i64 16
  %24 = load i32, ptr %23, align 8
  %25 = icmp ugt i32 %24, 65535
  br i1 %25, label %mz_zip_set_error.exit46, label %27

mz_zip_set_error.exit46:                          ; preds = %22
  %26 = getelementptr inbounds nuw i8, ptr %0, i64 28
  store i32 29, ptr %26, align 4
  br label %mz_zip_set_error.exit48

27:                                               ; preds = %22
  %28 = load i64, ptr %0, align 8
  %29 = icmp ugt i64 %28, 4294967295
  br i1 %29, label %mz_zip_set_error.exit44, label %36

mz_zip_set_error.exit44:                          ; preds = %27
  %30 = getelementptr inbounds nuw i8, ptr %0, i64 28
  store i32 29, ptr %30, align 4
  br label %mz_zip_set_error.exit48

31:                                               ; preds = %19
  %32 = getelementptr inbounds nuw i8, ptr %7, i64 8
  %33 = load i64, ptr %32, align 8
  %34 = icmp ugt i64 %33, 4294967294
  br i1 %34, label %mz_zip_set_error.exit42, label %._crit_edge

._crit_edge:                                      ; preds = %31
  %.phi.trans.insert = getelementptr inbounds nuw i8, ptr %0, i64 16
  %.pre = load i32, ptr %.phi.trans.insert, align 8
  br label %36

mz_zip_set_error.exit42:                          ; preds = %31
  %35 = getelementptr inbounds nuw i8, ptr %0, i64 28
  store i32 29, ptr %35, align 4
  br label %mz_zip_set_error.exit48

36:                                               ; preds = %._crit_edge, %27
  %37 = phi i32 [ %.pre, %._crit_edge ], [ %24, %27 ]
  %38 = getelementptr inbounds nuw i8, ptr %0, i64 16
  %.not53 = icmp eq i32 %37, 0
  br i1 %.not53, label %mz_zip_set_error.exit48, label %.lr.ph

.lr.ph:                                           ; preds = %36
  %39 = and i32 %1, 4096
  %.not36 = icmp eq i32 %39, 0
  %40 = getelementptr inbounds nuw i8, ptr %4, i64 80
  br i1 %.not36, label %.lr.ph.split.us, label %.lr.ph.split

.lr.ph.split.us:                                  ; preds = %.lr.ph, %42
  %.02749.us = phi i32 [ %43, %42 ], [ 0, %.lr.ph ]
  %41 = tail call i32 @mz_zip_validate_file(ptr noundef nonnull %0, i32 noundef %.02749.us, i32 noundef %1)
  %.not40.us = icmp eq i32 %41, 0
  br i1 %.not40.us, label %mz_zip_set_error.exit48, label %42

42:                                               ; preds = %.lr.ph.split.us
  %43 = add nuw i32 %.02749.us, 1
  %44 = load i32, ptr %38, align 8
  %45 = icmp ult i32 %43, %44
  br i1 %45, label %.lr.ph.split.us, label %mz_zip_set_error.exit48

46:                                               ; preds = %67
  %indvars.iv.next = add nuw nsw i64 %indvars.iv, 1
  %47 = load i32, ptr %38, align 8
  %48 = zext i32 %47 to i64
  %49 = icmp samesign ult i64 %indvars.iv.next, %48
  br i1 %49, label %.lr.ph.split, label %mz_zip_set_error.exit48

.lr.ph.split:                                     ; preds = %.lr.ph, %46
  %indvars.iv = phi i64 [ %indvars.iv.next, %46 ], [ 0, %.lr.ph ]
  call void @llvm.lifetime.start.p0(i64 4, ptr nonnull %3) #34
  call void @llvm.lifetime.start.p0(i64 1112, ptr nonnull %4) #34
  %50 = load ptr, ptr %6, align 8
  %.not10.i.i = icmp eq ptr %50, null
  br i1 %.not10.i.i, label %mz_zip_reader_file_stat.exit, label %51

51:                                               ; preds = %.lr.ph.split
  %52 = load ptr, ptr %50, align 8
  %53 = getelementptr inbounds nuw i8, ptr %50, i64 32
  %54 = load ptr, ptr %53, align 8
  %55 = getelementptr inbounds nuw i32, ptr %54, i64 %indvars.iv
  %56 = load i32, ptr %55, align 4
  %57 = zext i32 %56 to i64
  %58 = getelementptr inbounds nuw i8, ptr %52, i64 %57
  br label %mz_zip_reader_file_stat.exit

mz_zip_reader_file_stat.exit:                     ; preds = %.lr.ph.split, %51
  %.0.i.i = phi ptr [ %58, %51 ], [ null, %.lr.ph.split ]
  %59 = trunc nuw i64 %indvars.iv to i32
  %60 = call fastcc range(i32 0, 2) i32 @mz_zip_file_stat_internal(ptr noundef nonnull %0, i32 noundef %59, ptr noundef %.0.i.i, ptr noundef nonnull %4, ptr noundef null)
  %.not37 = icmp eq i32 %60, 0
  br i1 %.not37, label %.critedge, label %61

61:                                               ; preds = %mz_zip_reader_file_stat.exit
  %62 = call i32 @mz_zip_reader_locate_file_v2(ptr noundef nonnull %0, ptr noundef nonnull %40, ptr noundef null, i32 noundef 0, ptr noundef nonnull %3)
  %.not38 = icmp eq i32 %62, 0
  br i1 %.not38, label %.critedge, label %63

63:                                               ; preds = %61
  %64 = load i32, ptr %3, align 4
  %65 = zext i32 %64 to i64
  %.not39 = icmp eq i64 %indvars.iv, %65
  br i1 %.not39, label %67, label %mz_zip_set_error.exit

mz_zip_set_error.exit:                            ; preds = %63
  %66 = getelementptr inbounds nuw i8, ptr %0, i64 28
  store i32 30, ptr %66, align 4
  br label %.critedge

67:                                               ; preds = %63
  call void @llvm.lifetime.end.p0(i64 1112, ptr nonnull %4) #34
  call void @llvm.lifetime.end.p0(i64 4, ptr nonnull %3) #34
  %68 = call i32 @mz_zip_validate_file(ptr noundef nonnull %0, i32 noundef %59, i32 noundef %1)
  %.not40 = icmp eq i32 %68, 0
  br i1 %.not40, label %mz_zip_set_error.exit48, label %46

.critedge:                                        ; preds = %61, %mz_zip_reader_file_stat.exit, %mz_zip_set_error.exit
  call void @llvm.lifetime.end.p0(i64 1112, ptr nonnull %4) #34
  call void @llvm.lifetime.end.p0(i64 4, ptr nonnull %3) #34
  br label %mz_zip_set_error.exit48

mz_zip_set_error.exit48:                          ; preds = %67, %46, %.lr.ph.split.us, %42, %36, %17, %2, %.critedge, %mz_zip_set_error.exit42, %mz_zip_set_error.exit44, %mz_zip_set_error.exit46
  %.028 = phi i32 [ 0, %mz_zip_set_error.exit42 ], [ 0, %mz_zip_set_error.exit46 ], [ 0, %mz_zip_set_error.exit44 ], [ 0, %.critedge ], [ 0, %2 ], [ 0, %17 ], [ 1, %36 ], [ 0, %.lr.ph.split.us ], [ 1, %42 ], [ 0, %67 ], [ 1, %46 ]
  ret i32 %.028
}